; Function Attrs: nounwind uwtable
define i32 @fdt_next_property_offset(ptr noundef %0, i32 noundef %1) local_unnamed_addr #0 {
  %3 = alloca i32, align 4
  %4 = tail call i32 @fdt_check_prop_offset_(ptr noundef %0, i32 noundef %1) #9
  %5 = icmp slt i32 %4, 0
  br i1 %5, label %15, label %6

6:                                                ; preds = %2
  call void @llvm.lifetime.start.p0(i64 4, ptr nonnull %3) #9
  br label %7

7:                                                ; preds = %12, %6
  %.05.i = phi i32 [ %4, %6 ], [ %13, %12 ]
  %8 = call i32 @fdt_next_tag(ptr noundef %0, i32 noundef %.05.i, ptr noundef nonnull %3) #9
  switch i32 %8, label %12 [
    i32 9, label %9
    i32 3, label %nextprop_.exit
  ]

9:                                                ; preds = %7
  %10 = load i32, ptr %3, align 4, !tbaa !6
  %11 = icmp sgt i32 %10, -1
  %..i = select i1 %11, i32 -11, i32 %10
  br label %nextprop_.exit

12:                                               ; preds = %7
  %13 = load i32, ptr %3, align 4, !tbaa !6
  %14 = icmp eq i32 %8, 4
  br i1 %14, label %7, label %nextprop_.exit, !llvm.loop !15

nextprop_.exit:                                   ; preds = %7, %12, %9
  %.0.i = phi i32 [ %..i, %9 ], [ %.05.i, %7 ], [ -1, %12 ]
  call void @llvm.lifetime.end.p0(i64 4, ptr nonnull %3) #9
  br label %15

15:                                               ; preds = %2, %nextprop_.exit
  %.0 = phi i32 [ %.0.i, %nextprop_.exit ], [ %4, %2 ]
  ret i32 %.0
}